target datalayout = "e-m:e-p270:32:32-p271:32:32-p272:64:64-i64:64-i128:128-f80:128-n8:16:32:64-S128"
target triple = "x86_64-pc-linux-gnu"

%struct.pmix_class_t = type { ptr, ptr, ptr, ptr, i32, i32, ptr, ptr, i64 }
%struct.pmix_object_t = type { %union.pthread_mutex_t, ptr, i32, %struct.pmix_tma }
%union.pthread_mutex_t = type { %struct.__pthread_mutex_s }
%struct.__pthread_mutex_s = type { i32, i32, i32, i32, i32, i16, i16, %struct.__pthread_internal_list }
%struct.__pthread_internal_list = type { ptr, ptr }
%struct.pmix_tma = type { ptr, ptr, ptr, ptr, ptr, ptr, ptr, ptr }
%struct.pmix_proc = type { [256 x i8], i32 }
%struct.prte_process_info_t = type { %struct.pmix_proc, %struct.pmix_proc, ptr, %struct.pmix_proc, i32, i32, i32, ptr, ptr, i32, i8, ptr, i16, ptr, ptr, i8, ptr, i8 }
%struct.prte_odls_base_module_1_3_0_t = type { ptr, ptr, ptr, ptr, ptr }

@prte_process_info = external global %struct.prte_process_info_t, align 8
@.str.81 = private unnamed_addr constant [43 x i8] c"%s is executing clean abnormal termination\00", align 1
@prte_odls = external global %struct.prte_odls_base_module_1_3_0_t, align 8
@prte_finalizing = external global i8, align 1
@.str.133 = private unnamed_addr constant [21 x i8] c"pthread_mutex_lock()\00", align 1

; Function Attrs: inlinehint nounwind uwtable
define internal void @pmix_tma_free(ptr noundef %0, ptr noundef %1) #3 {
  %3 = alloca ptr, align 8
  %4 = alloca ptr, align 8
  store ptr %0, ptr %3, align 8, !tbaa !147
  store ptr %1, ptr %4, align 8, !tbaa !30
  %5 = load ptr, ptr %3, align 8, !tbaa !147
  %6 = icmp ne ptr null, %5
  br i1 %6, label %7, label %13

7:                                                ; preds = %2
  %8 = load ptr, ptr %3, align 8, !tbaa !147
  %9 = getelementptr inbounds nuw %struct.pmix_tma, ptr %8, i32 0, i32 5
  %10 = load ptr, ptr %9, align 8, !tbaa !215
  %11 = load ptr, ptr %3, align 8, !tbaa !147
  %12 = load ptr, ptr %4, align 8, !tbaa !30
  call void %10(ptr noundef %11, ptr noundef %12)
  br label %15

13:                                               ; preds = %2
  %14 = load ptr, ptr %4, align 8, !tbaa !30
  call void @free(ptr noundef %14) #12
  br label %15

15:                                               ; preds = %13, %7
  ret void
}

; Function Attrs: inlinehint nounwind uwtable
define internal void @pmix_obj_run_destructors(ptr noundef %0) #3 {
  %2 = alloca ptr, align 8
  %3 = alloca ptr, align 8
  store ptr %0, ptr %2, align 8, !tbaa !112
  call void @llvm.lifetime.start.p0(i64 8, ptr %3) #12
  %4 = load ptr, ptr %2, align 8, !tbaa !112
  %5 = getelementptr inbounds nuw %struct.pmix_object_t, ptr %4, i32 0, i32 1
  %6 = load ptr, ptr %5, align 8, !tbaa !18
  %7 = getelementptr inbounds nuw %struct.pmix_class_t, ptr %6, i32 0, i32 7
  %8 = load ptr, ptr %7, align 8, !tbaa !163
  store ptr %8, ptr %3, align 8, !tbaa !30
  br label %9

9:                                                ; preds = %13, %1
  %10 = load ptr, ptr %3, align 8, !tbaa !30
  %11 = load ptr, ptr %10, align 8, !tbaa !30
  %12 = icmp ne ptr null, %11
  br i1 %12, label %13, label %19

13:                                               ; preds = %9
  %14 = load ptr, ptr %3, align 8, !tbaa !30
  %15 = load ptr, ptr %14, align 8, !tbaa !30
  %16 = load ptr, ptr %2, align 8, !tbaa !112
  call void %15(ptr noundef %16)
  %17 = load ptr, ptr %3, align 8, !tbaa !30
  %18 = getelementptr inbounds nuw ptr, ptr %17, i32 1
  store ptr %18, ptr %3, align 8, !tbaa !30
  br label %9, !llvm.loop !164

19:                                               ; preds = %9
  call void @llvm.lifetime.end.p0(i64 8, ptr %3) #12
  ret void
}

; Function Attrs: alwaysinline nounwind uwtable
define internal i32 @pmix_obj_update(ptr noundef %0, i32 noundef %1) #9 {
  %3 = alloca ptr, align 8
  %4 = alloca i32, align 4
  %5 = alloca i32, align 4
  store ptr %0, ptr %3, align 8, !tbaa !112
  store i32 %1, ptr %4, align 4, !tbaa !4
  call void @llvm.lifetime.start.p0(i64 4, ptr %5) #12
  %6 = load ptr, ptr %3, align 8, !tbaa !112
  %7 = getelementptr inbounds nuw %struct.pmix_object_t, ptr %6, i32 0, i32 0
  %8 = call i32 @pthread_mutex_lock(ptr noundef %7) #12
  store i32 %8, ptr %5, align 4, !tbaa !4
  %9 = load i32, ptr %5, align 4, !tbaa !4
  %10 = icmp eq i32 %9, 35
  br i1 %10, label %11, label %14

11:                                               ; preds = %2
  %12 = load i32, ptr %5, align 4, !tbaa !4
  %13 = call ptr @__errno_location() #16
  store i32 %12, ptr %13, align 4, !tbaa !4
  call void @perror(ptr noundef @.str.133)
  call void @abort() #14
  unreachable

14:                                               ; preds = %2
  %15 = load i32, ptr %4, align 4, !tbaa !4
  %16 = load ptr, ptr %3, align 8, !tbaa !112
  %17 = getelementptr inbounds nuw %struct.pmix_object_t, ptr %16, i32 0, i32 2
  %18 = load i32, ptr %17, align 8, !tbaa !21
  %19 = add nsw i32 %18, %15
  store i32 %19, ptr %17, align 8, !tbaa !21
  store i32 %19, ptr %5, align 4, !tbaa !4
  %20 = load ptr, ptr %3, align 8, !tbaa !112
  %21 = getelementptr inbounds nuw %struct.pmix_object_t, ptr %20, i32 0, i32 0
  %22 = call i32 @pthread_mutex_unlock(ptr noundef %21) #12
  %23 = load i32, ptr %5, align 4, !tbaa !4
  call void @llvm.lifetime.end.p0(i64 4, ptr %5) #12
  ret i32 %23
}

; Function Attrs: nounwind uwtable
define internal void @shutdown_callback(i32 noundef %0, i16 noundef signext %1, ptr noundef %2) #0 {
  %4 = alloca i32, align 4
  %5 = alloca i16, align 2
  %6 = alloca ptr, align 8
  %7 = alloca ptr, align 8
  %8 = alloca ptr, align 8
  %9 = alloca ptr, align 8
  %10 = alloca ptr, align 8
  store i32 %0, ptr %4, align 4, !tbaa !4
  store i16 %1, ptr %5, align 2, !tbaa !159
  store ptr %2, ptr %6, align 8, !tbaa !30
  call void @llvm.lifetime.start.p0(i64 8, ptr %7) #12
  %11 = load ptr, ptr %6, align 8, !tbaa !30
  store ptr %11, ptr %7, align 8, !tbaa !30
  call void @llvm.lifetime.start.p0(i64 8, ptr %8) #12
  %12 = load ptr, ptr %7, align 8, !tbaa !30
  %13 = icmp ne ptr null, %12
  br i1 %13, label %14, label %37

14:                                               ; preds = %3
  br label %15

15:                                               ; preds = %14
  call void @llvm.lifetime.start.p0(i64 8, ptr %9) #12
  %16 = load ptr, ptr %7, align 8, !tbaa !30
  store ptr %16, ptr %9, align 8, !tbaa !112
  %17 = load ptr, ptr %9, align 8, !tbaa !112
  %18 = call i32 @pmix_obj_update(ptr noundef %17, i32 noundef -1)
  %19 = icmp eq i32 0, %18
  br i1 %19, label %20, label %34

20:                                               ; preds = %15
  %21 = load ptr, ptr %9, align 8, !tbaa !112
  call void @pmix_obj_run_destructors(ptr noundef %21)
  %22 = load ptr, ptr %9, align 8, !tbaa !112
  %23 = getelementptr inbounds nuw %struct.pmix_object_t, ptr %22, i32 0, i32 3
  %24 = getelementptr inbounds nuw %struct.pmix_tma, ptr %23, i32 0, i32 5
  %25 = load ptr, ptr %24, align 8, !tbaa !114
  %26 = icmp ne ptr null, %25
  br i1 %26, label %27, label %31

27:                                               ; preds = %20
  %28 = load ptr, ptr %9, align 8, !tbaa !112
  %29 = getelementptr inbounds nuw %struct.pmix_object_t, ptr %28, i32 0, i32 3
  %30 = load ptr, ptr %7, align 8, !tbaa !30
  call void @pmix_tma_free(ptr noundef %29, ptr noundef %30)
  br label %33

31:                                               ; preds = %20
  %32 = load ptr, ptr %7, align 8, !tbaa !30
  call void @free(ptr noundef %32) #12
  br label %33

33:                                               ; preds = %31, %27
  store ptr null, ptr %7, align 8, !tbaa !30
  br label %34

34:                                               ; preds = %33, %15
  call void @llvm.lifetime.end.p0(i64 8, ptr %9) #12
  br label %35

35:                                               ; preds = %34
  br label %36

36:                                               ; preds = %35
  br label %37

37:                                               ; preds = %36, %3
  %38 = call ptr @prte_util_print_name_args(ptr noundef @prte_process_info)
  call void (i32, ptr, ...) @pmix_output(i32 noundef 0, ptr noundef @.str.81, ptr noundef %38)
  %39 = load ptr, ptr getelementptr inbounds nuw (%struct.prte_odls_base_module_1_3_0_t, ptr @prte_odls, i32 0, i32 2), align 8, !tbaa !213
  %40 = call i32 %39(ptr noundef null)
  store i8 1, ptr @prte_finalizing, align 1, !tbaa !11
  %41 = call ptr @prte_get_job_data_object(ptr noundef @prte_process_info)
  store ptr %41, ptr %8, align 8, !tbaa !30
  br label %42

42:                                               ; preds = %37
  call void @llvm.lifetime.start.p0(i64 8, ptr %10) #12
  %43 = load ptr, ptr %8, align 8, !tbaa !30
  store ptr %43, ptr %10, align 8, !tbaa !112
  %44 = load ptr, ptr %10, align 8, !tbaa !112
  %45 = call i32 @pmix_obj_update(ptr noundef %44, i32 noundef -1)
  %46 = icmp eq i32 0, %45
  br i1 %46, label %47, label %61

47:                                               ; preds = %42
  %48 = load ptr, ptr %10, align 8, !tbaa !112
  call void @pmix_obj_run_destructors(ptr noundef %48)
  %49 = load ptr, ptr %10, align 8, !tbaa !112
  %50 = getelementptr inbounds nuw %struct.pmix_object_t, ptr %49, i32 0, i32 3
  %51 = getelementptr inbounds nuw %struct.pmix_tma, ptr %50, i32 0, i32 5
  %52 = load ptr, ptr %51, align 8, !tbaa !114
  %53 = icmp ne ptr null, %52
  br i1 %53, label %54, label %58

54:                                               ; preds = %47
  %55 = load ptr, ptr %10, align 8, !tbaa !112
  %56 = getelementptr inbounds nuw %struct.pmix_object_t, ptr %55, i32 0, i32 3
  %57 = load ptr, ptr %8, align 8, !tbaa !30
  call void @pmix_tma_free(ptr noundef %56, ptr noundef %57)
  br label %60

58:                                               ; preds = %47
  %59 = load ptr, ptr %8, align 8, !tbaa !30
  call void @free(ptr noundef %59) #12
  br label %60

60:                                               ; preds = %58, %54
  store ptr null, ptr %8, align 8, !tbaa !30
  br label %61

61:                                               ; preds = %60, %42
  call void @llvm.lifetime.end.p0(i64 8, ptr %10) #12
  br label %62

62:                                               ; preds = %61
  br label %63

63:                                               ; preds = %62
  call void @exit(i32 noundef 1) #14
  unreachable
}