; Function Attrs: noreturn nounwind uwtable
define internal void @shutdown_callback(i32 %0, i16 signext %1, ptr noundef %2) #15 {
  %.not = icmp eq ptr %2, null
  br i1 %.not, label %28, label %4

4:                                                ; preds = %3
  %5 = tail call i32 @pthread_mutex_lock(ptr noundef nonnull %2) #23
  %6 = icmp eq i32 %5, 35
  br i1 %6, label %7, label %pmix_obj_update.exit

7:                                                ; preds = %4
  %8 = tail call ptr @__errno_location() #30
  store i32 35, ptr %8, align 4, !tbaa !9
  tail call void @perror(ptr noundef nonnull @.str.133) #26
  tail call void @abort() #28
  unreachable

pmix_obj_update.exit:                             ; preds = %4
  %9 = getelementptr inbounds nuw i8, ptr %2, i64 48
  %10 = load i32, ptr %9, align 8, !tbaa !19
  %11 = add nsw i32 %10, -1
  store i32 %11, ptr %9, align 8, !tbaa !19
  %12 = tail call i32 @pthread_mutex_unlock(ptr noundef nonnull %2) #23
  %13 = icmp eq i32 %11, 0
  br i1 %13, label %14, label %28

14:                                               ; preds = %pmix_obj_update.exit
  %15 = getelementptr inbounds nuw i8, ptr %2, i64 40
  %16 = load ptr, ptr %15, align 8, !tbaa !16
  %17 = getelementptr inbounds nuw i8, ptr %16, i64 48
  %18 = load ptr, ptr %17, align 8, !tbaa !45
  %19 = load ptr, ptr %18, align 8, !tbaa !21
  %.not6.i = icmp eq ptr %19, null
  br i1 %.not6.i, label %pmix_obj_run_destructors.exit, label %.lr.ph.i

.lr.ph.i:                                         ; preds = %14, %.lr.ph.i
  %20 = phi ptr [ %22, %.lr.ph.i ], [ %19, %14 ]
  %.07.i = phi ptr [ %21, %.lr.ph.i ], [ %18, %14 ]
  tail call void %20(ptr noundef nonnull %2) #23
  %21 = getelementptr inbounds nuw i8, ptr %.07.i, i64 8
  %22 = load ptr, ptr %21, align 8, !tbaa !21
  %.not.i = icmp eq ptr %22, null
  br i1 %.not.i, label %pmix_obj_run_destructors.exit, label %.lr.ph.i, !llvm.loop !46

pmix_obj_run_destructors.exit:                    ; preds = %.lr.ph.i, %14
  %23 = getelementptr inbounds nuw i8, ptr %2, i64 96
  %24 = load ptr, ptr %23, align 8, !tbaa !115
  %.not16 = icmp eq ptr %24, null
  br i1 %.not16, label %27, label %25

25:                                               ; preds = %pmix_obj_run_destructors.exit
  %26 = getelementptr inbounds nuw i8, ptr %2, i64 56
  tail call void %24(ptr noundef nonnull %26, ptr noundef nonnull %2) #23
  br label %28

27:                                               ; preds = %pmix_obj_run_destructors.exit
  tail call void @free(ptr noundef nonnull %2) #23
  br label %28

28:                                               ; preds = %pmix_obj_update.exit, %27, %25, %3
  %29 = tail call ptr @prte_util_print_name_args(ptr noundef nonnull @prte_process_info) #23
  tail call void (i32, ptr, ...) @pmix_output(i32 noundef 0, ptr noundef nonnull @.str.81, ptr noundef %29) #23
  %30 = load ptr, ptr getelementptr inbounds nuw (i8, ptr @prte_odls, i64 16), align 8, !tbaa !185
  %31 = tail call i32 %30(ptr noundef null) #23
  store i8 1, ptr @prte_finalizing, align 1, !tbaa !55
  %32 = tail call ptr @prte_get_job_data_object(ptr noundef nonnull @prte_process_info) #23
  %33 = tail call i32 @pthread_mutex_lock(ptr noundef %32) #23
  %34 = icmp eq i32 %33, 35
  br i1 %34, label %35, label %pmix_obj_update.exit18

35:                                               ; preds = %28
  %36 = tail call ptr @__errno_location() #30
  store i32 35, ptr %36, align 4, !tbaa !9
  tail call void @perror(ptr noundef nonnull @.str.133) #26
  tail call void @abort() #28
  unreachable

pmix_obj_update.exit18:                           ; preds = %28
  %37 = getelementptr inbounds nuw i8, ptr %32, i64 48
  %38 = load i32, ptr %37, align 8, !tbaa !19
  %39 = add nsw i32 %38, -1
  store i32 %39, ptr %37, align 8, !tbaa !19
  %40 = tail call i32 @pthread_mutex_unlock(ptr noundef %32) #23
  %41 = icmp eq i32 %39, 0
  br i1 %41, label %42, label %56

42:                                               ; preds = %pmix_obj_update.exit18
  %43 = getelementptr inbounds nuw i8, ptr %32, i64 40
  %44 = load ptr, ptr %43, align 8, !tbaa !16
  %45 = getelementptr inbounds nuw i8, ptr %44, i64 48
  %46 = load ptr, ptr %45, align 8, !tbaa !45
  %47 = load ptr, ptr %46, align 8, !tbaa !21
  %.not6.i20 = icmp eq ptr %47, null
  br i1 %.not6.i20, label %pmix_obj_run_destructors.exit24, label %.lr.ph.i21

.lr.ph.i21:                                       ; preds = %42, %.lr.ph.i21
  %48 = phi ptr [ %50, %.lr.ph.i21 ], [ %47, %42 ]
  %.07.i22 = phi ptr [ %49, %.lr.ph.i21 ], [ %46, %42 ]
  tail call void %48(ptr noundef %32) #23
  %49 = getelementptr inbounds nuw i8, ptr %.07.i22, i64 8
  %50 = load ptr, ptr %49, align 8, !tbaa !21
  %.not.i23 = icmp eq ptr %50, null
  br i1 %.not.i23, label %pmix_obj_run_destructors.exit24, label %.lr.ph.i21, !llvm.loop !46

pmix_obj_run_destructors.exit24:                  ; preds = %.lr.ph.i21, %42
  %51 = getelementptr inbounds nuw i8, ptr %32, i64 96
  %52 = load ptr, ptr %51, align 8, !tbaa !115
  %.not17 = icmp eq ptr %52, null
  br i1 %.not17, label %55, label %53

53:                                               ; preds = %pmix_obj_run_destructors.exit24
  %54 = getelementptr inbounds nuw i8, ptr %32, i64 56
  tail call void %52(ptr noundef nonnull %54, ptr noundef nonnull %32) #23
  br label %56

55:                                               ; preds = %pmix_obj_run_destructors.exit24
  tail call void @free(ptr noundef nonnull %32) #23
  br label %56

56:                                               ; preds = %53, %55, %pmix_obj_update.exit18
  tail call void @exit(i32 noundef 1) #25
  unreachable
}